target datalayout = "e-m:e-p270:32:32-p271:32:32-p272:64:64-i64:64-i128:128-f80:128-n8:16:32:64-S128"
target triple = "x86_64-pc-linux-gnu"

%struct._ir_insn = type { %struct.anon, %union.anon.5 }
%struct.anon = type { %union.anon, %union.anon.4 }
%union.anon = type { i32 }
%union.anon.4 = type { i32 }
%union.anon.5 = type { %union._ir_val }
%union._ir_val = type { double }
%struct._ir_ctx = type { ptr, i32, i32, i32, i32, i32, i32, i32, i32, i32, i32, %struct._ir_insn, ptr, ptr, ptr, i32, i32, i32, ptr, ptr, ptr, ptr, ptr, i32, i32, i64, i32, i32, i32, i64, i32, i32, i32, i32, ptr, ptr, ptr, ptr, ptr, ptr, %union.anon.13, ptr, i32, i32, i32, i64, i32, i32, i32, ptr, ptr, ptr, ptr, %struct._ir_strtab, [61 x i32], [14 x i32] }
%union.anon.13 = type { ptr }
%struct._ir_strtab = type { ptr, i32, i32, i32, i32, ptr, i32, i32 }

; Function Attrs: nounwind uwtable
define internal void @ir_grow_bottom(ptr noundef %0) #0 {
  %2 = alloca ptr, align 8
  %3 = alloca ptr, align 8
  %4 = alloca i32, align 4
  store ptr %0, ptr %2, align 8
  %5 = load ptr, ptr %2, align 8
  %6 = getelementptr inbounds %struct._ir_ctx, ptr %5, i32 0, i32 0
  %7 = load ptr, ptr %6, align 8
  %8 = load ptr, ptr %2, align 8
  %9 = getelementptr inbounds %struct._ir_ctx, ptr %8, i32 0, i32 4
  %10 = load i32, ptr %9, align 4
  %11 = sext i32 %10 to i64
  %12 = sub i64 0, %11
  %13 = getelementptr inbounds %struct._ir_insn, ptr %7, i64 %12
  store ptr %13, ptr %3, align 8
  %14 = load ptr, ptr %2, align 8
  %15 = getelementptr inbounds %struct._ir_ctx, ptr %14, i32 0, i32 4
  %16 = load i32, ptr %15, align 4
  store i32 %16, ptr %4, align 4
  %17 = load ptr, ptr %2, align 8
  %18 = getelementptr inbounds %struct._ir_ctx, ptr %17, i32 0, i32 4
  %19 = load i32, ptr %18, align 4
  %20 = icmp slt i32 %19, 4096
  br i1 %20, label %21, label %26

21:                                               ; preds = %1
  %22 = load ptr, ptr %2, align 8
  %23 = getelementptr inbounds %struct._ir_ctx, ptr %22, i32 0, i32 4
  %24 = load i32, ptr %23, align 4
  %25 = mul nsw i32 %24, 2
  store i32 %25, ptr %23, align 4
  br label %40

26:                                               ; preds = %1
  %27 = load ptr, ptr %2, align 8
  %28 = getelementptr inbounds %struct._ir_ctx, ptr %27, i32 0, i32 4
  %29 = load i32, ptr %28, align 4
  %30 = icmp slt i32 %29, 8192
  br i1 %30, label %31, label %34

31:                                               ; preds = %26
  %32 = load ptr, ptr %2, align 8
  %33 = getelementptr inbounds %struct._ir_ctx, ptr %32, i32 0, i32 4
  store i32 8192, ptr %33, align 4
  br label %39

34:                                               ; preds = %26
  %35 = load ptr, ptr %2, align 8
  %36 = getelementptr inbounds %struct._ir_ctx, ptr %35, i32 0, i32 4
  %37 = load i32, ptr %36, align 4
  %38 = add nsw i32 %37, 4096
  store i32 %38, ptr %36, align 4
  br label %39

39:                                               ; preds = %34, %31
  br label %40

40:                                               ; preds = %39, %21
  %41 = load ptr, ptr %3, align 8
  %42 = load ptr, ptr %2, align 8
  %43 = getelementptr inbounds %struct._ir_ctx, ptr %42, i32 0, i32 4
  %44 = load i32, ptr %43, align 4
  %45 = load ptr, ptr %2, align 8
  %46 = getelementptr inbounds %struct._ir_ctx, ptr %45, i32 0, i32 2
  %47 = load i32, ptr %46, align 4
  %48 = add nsw i32 %44, %47
  %49 = sext i32 %48 to i64
  %50 = mul i64 %49, 16
  %51 = call ptr @_erealloc(ptr noundef %41, i64 noundef %50) #14
  store ptr %51, ptr %3, align 8
  %52 = load ptr, ptr %3, align 8
  %53 = load ptr, ptr %2, align 8
  %54 = getelementptr inbounds %struct._ir_ctx, ptr %53, i32 0, i32 4
  %55 = load i32, ptr %54, align 4
  %56 = load i32, ptr %4, align 4
  %57 = sub nsw i32 %55, %56
  %58 = sext i32 %57 to i64
  %59 = getelementptr inbounds %struct._ir_insn, ptr %52, i64 %58
  %60 = load ptr, ptr %3, align 8
  %61 = load i32, ptr %4, align 4
  %62 = load ptr, ptr %2, align 8
  %63 = getelementptr inbounds %struct._ir_ctx, ptr %62, i32 0, i32 1
  %64 = load i32, ptr %63, align 8
  %65 = add nsw i32 %61, %64
  %66 = sext i32 %65 to i64
  %67 = mul i64 %66, 16
  call void @llvm.memmove.p0.p0.i64(ptr align 8 %59, ptr align 8 %60, i64 %67, i1 false)
  %68 = load ptr, ptr %3, align 8
  %69 = load ptr, ptr %2, align 8
  %70 = getelementptr inbounds %struct._ir_ctx, ptr %69, i32 0, i32 4
  %71 = load i32, ptr %70, align 4
  %72 = sext i32 %71 to i64
  %73 = getelementptr inbounds %struct._ir_insn, ptr %68, i64 %72
  %74 = load ptr, ptr %2, align 8
  %75 = getelementptr inbounds %struct._ir_ctx, ptr %74, i32 0, i32 0
  store ptr %73, ptr %75, align 8
  ret void
}

; Function Attrs: nounwind uwtable
define internal i32 @ir_next_const(ptr noundef %0) #0 {
  %2 = alloca ptr, align 8
  %3 = alloca i32, align 4
  store ptr %0, ptr %2, align 8
  %4 = load ptr, ptr %2, align 8
  %5 = getelementptr inbounds %struct._ir_ctx, ptr %4, i32 0, i32 3
  %6 = load i32, ptr %5, align 8
  store i32 %6, ptr %3, align 4
  %7 = load i32, ptr %3, align 4
  %8 = load ptr, ptr %2, align 8
  %9 = getelementptr inbounds %struct._ir_ctx, ptr %8, i32 0, i32 4
  %10 = load i32, ptr %9, align 4
  %11 = icmp sge i32 %7, %10
  %12 = xor i1 %11, true
  %13 = xor i1 %12, true
  %14 = zext i1 %13 to i32
  %15 = sext i32 %14 to i64
  %16 = icmp ne i64 %15, 0
  br i1 %16, label %17, label %19

17:                                               ; preds = %1
  %18 = load ptr, ptr %2, align 8
  call void @ir_grow_bottom(ptr noundef %18)
  br label %19

19:                                               ; preds = %17, %1
  %20 = load i32, ptr %3, align 4
  %21 = add nsw i32 %20, 1
  %22 = load ptr, ptr %2, align 8
  %23 = getelementptr inbounds %struct._ir_ctx, ptr %22, i32 0, i32 3
  store i32 %21, ptr %23, align 8
  %24 = load i32, ptr %3, align 4
  %25 = sub nsw i32 0, %24
  ret i32 %25
}

; Function Attrs: nounwind uwtable
define hidden i32 @ir_unique_const_addr(ptr noundef %0, i64 noundef %1) #0 {
  %3 = alloca ptr, align 8
  %4 = alloca i64, align 8
  %5 = alloca i32, align 4
  %6 = alloca ptr, align 8
  store ptr %0, ptr %3, align 8
  store i64 %1, ptr %4, align 8
  %7 = load ptr, ptr %3, align 8
  %8 = call i32 @ir_next_const(ptr noundef %7)
  store i32 %8, ptr %5, align 4
  %9 = load ptr, ptr %3, align 8
  %10 = getelementptr inbounds %struct._ir_ctx, ptr %9, i32 0, i32 0
  %11 = load ptr, ptr %10, align 8
  %12 = load i32, ptr %5, align 4
  %13 = sext i32 %12 to i64
  %14 = getelementptr inbounds %struct._ir_insn, ptr %11, i64 %13
  store ptr %14, ptr %6, align 8
  %15 = load ptr, ptr %6, align 8
  %16 = getelementptr inbounds %struct._ir_insn, ptr %15, i32 0, i32 0
  %17 = getelementptr inbounds %struct.anon, ptr %16, i32 0, i32 0
  store i32 1542, ptr %17, align 8
  %18 = load i64, ptr %4, align 8
  %19 = load ptr, ptr %6, align 8
  %20 = getelementptr inbounds %struct._ir_insn, ptr %19, i32 0, i32 1
  store i64 %18, ptr %20, align 8
  %21 = load ptr, ptr %6, align 8
  %22 = getelementptr inbounds %struct._ir_insn, ptr %21, i32 0, i32 0
  %23 = getelementptr inbounds %struct.anon, ptr %22, i32 0, i32 1
  store i32 0, ptr %23, align 4
  %24 = load i32, ptr %5, align 4
  ret i32 %24
}