; Function Attrs: nounwind uwtable
define hidden i32 @ir_unique_const_addr(ptr nocapture noundef %0, i64 noundef %1) local_unnamed_addr #0 {
  %3 = getelementptr inbounds i8, ptr %0, i64 16
  %4 = load i32, ptr %3, align 8
  %5 = getelementptr inbounds i8, ptr %0, i64 20
  %6 = load i32, ptr %5, align 4
  %.not.i = icmp slt i32 %4, %6
  %.pre = load ptr, ptr %0, align 8
  br i1 %.not.i, label %ir_next_const.exit, label %7

7:                                                ; preds = %2
  %8 = icmp slt i32 %6, 4096
  %9 = shl nsw i32 %6, 1
  %10 = icmp ult i32 %6, 8192
  %11 = add nuw nsw i32 %6, 4096
  %spec.select.i.i = select i1 %10, i32 8192, i32 %11
  %.sink.i.i = select i1 %8, i32 %9, i32 %spec.select.i.i
  store i32 %.sink.i.i, ptr %5, align 4
  %12 = sext i32 %6 to i64
  %13 = sub nsw i64 0, %12
  %14 = getelementptr inbounds %struct._ir_insn, ptr %.pre, i64 %13
  %15 = getelementptr inbounds i8, ptr %0, i64 12
  %16 = load i32, ptr %15, align 4
  %17 = add nsw i32 %16, %.sink.i.i
  %18 = sext i32 %17 to i64
  %19 = shl nsw i64 %18, 4
  %20 = tail call ptr @_erealloc(ptr noundef %14, i64 noundef %19) #24
  %21 = load i32, ptr %5, align 4
  %22 = sub nsw i32 %21, %6
  %23 = sext i32 %22 to i64
  %24 = getelementptr inbounds %struct._ir_insn, ptr %20, i64 %23
  %25 = getelementptr inbounds i8, ptr %0, i64 8
  %26 = load i32, ptr %25, align 8
  %27 = add nsw i32 %26, %6
  %28 = sext i32 %27 to i64
  %29 = shl nsw i64 %28, 4
  tail call void @llvm.memmove.p0.p0.i64(ptr align 8 %24, ptr align 8 %20, i64 %29, i1 false)
  %30 = load i32, ptr %5, align 4
  %31 = sext i32 %30 to i64
  %32 = getelementptr inbounds %struct._ir_insn, ptr %20, i64 %31
  store ptr %32, ptr %0, align 8
  br label %ir_next_const.exit

ir_next_const.exit:                               ; preds = %2, %7
  %33 = phi ptr [ %.pre, %2 ], [ %32, %7 ]
  %34 = add nsw i32 %4, 1
  store i32 %34, ptr %3, align 8
  %35 = sub nsw i32 0, %4
  %36 = sext i32 %35 to i64
  %37 = getelementptr inbounds %struct._ir_insn, ptr %33, i64 %36
  store i32 1542, ptr %37, align 8
  %38 = getelementptr inbounds i8, ptr %37, i64 8
  store i64 %1, ptr %38, align 8
  %39 = getelementptr inbounds i8, ptr %37, i64 4
  store i32 0, ptr %39, align 4
  ret i32 %35
}